target datalayout = "e-m:e-p270:32:32-p271:32:32-p272:64:64-i64:64-i128:128-f80:128-n8:16:32:64-S128"
target triple = "x86_64-pc-linux-gnu"

%struct.quic_conn_st = type { %struct.quic_obj_st, ptr, ptr, ptr, ptr, ptr, ptr, ptr, ptr, %union.bio_addr_st, %struct.quic_thread_assist_st, i64, i16, i32, i32, i64, i32, i64, i32 }
%struct.quic_obj_st = type { %struct.ssl_st, ptr, ptr, ptr, ptr, ptr, i64, i8 }
%struct.ssl_st = type { i32, ptr, ptr, ptr, %struct.CRYPTO_REF_COUNT, ptr, %struct.crypto_ex_data_st }
%struct.CRYPTO_REF_COUNT = type { i32 }
%struct.crypto_ex_data_st = type { ptr, ptr }
%union.bio_addr_st = type { %struct.sockaddr_in6, [84 x i8] }
%struct.sockaddr_in6 = type { i16, i16, i32, %struct.in6_addr, i32 }
%struct.in6_addr = type { %union.anon }
%union.anon = type { [4 x i32] }
%struct.quic_thread_assist_st = type { ptr, ptr, ptr, i32, i32 }
%struct.OSSL_TIME = type { i64 }
%struct.qctx_st = type { ptr, ptr, ptr, ptr, ptr, i32, i32, i32, i32 }
%struct.quic_xso_st = type { %struct.quic_obj_st, ptr, ptr, i8, ptr, i64, i64, i32, i64, i32 }
%struct.quic_stream_st = type { %struct.quic_stream_list_node_st, %struct.quic_stream_list_node_st, %struct.quic_stream_list_node_st, ptr, i64, i64, i64, i64, i64, i64, i64, ptr, ptr, %struct.quic_txfc_st, %struct.quic_rxfc_st, i64 }
%struct.quic_stream_list_node_st = type { ptr, ptr }
%struct.quic_txfc_st = type { ptr, i64, i64, i8 }
%struct.quic_rxfc_st = type { i64, i64, i64, i64, i64, i64, i64, %struct.OSSL_TIME, ptr, ptr, ptr, i8, i8, i8, i8 }
%struct.ssl_stream_reset_args_st = type { i64 }

@.str = private unnamed_addr constant [32 x i8] c"../openssl/ssl/quic/quic_impl.c\00", align 1
@__func__.ossl_quic_stream_reset = private unnamed_addr constant [23 x i8] c"ossl_quic_stream_reset\00", align 1

; Function Attrs: inlinehint nounwind uwtable
define internal ptr @ossl_quic_obj_get0_engine(ptr noundef %0) #3 {
  %2 = alloca ptr, align 8
  store ptr %0, ptr %2, align 8, !tbaa !172
  %3 = load ptr, ptr %2, align 8, !tbaa !172
  %4 = getelementptr inbounds nuw %struct.quic_obj_st, ptr %3, i32 0, i32 4
  %5 = load ptr, ptr %4, align 8, !tbaa !168
  ret ptr %5
}

; Function Attrs: inlinehint nounwind uwtable
define internal ptr @ossl_quic_obj_get0_mutex(ptr noundef %0) #3 {
  %2 = alloca ptr, align 8
  store ptr %0, ptr %2, align 8, !tbaa !172
  %3 = load ptr, ptr %2, align 8, !tbaa !172
  %4 = call ptr @ossl_quic_obj_get0_engine(ptr noundef %3)
  %5 = call ptr @ossl_quic_engine_get0_mutex(ptr noundef %4)
  ret ptr %5
}

; Function Attrs: nounwind uwtable
define internal void @qctx_unlock(ptr noundef %0) #0 {
  %2 = alloca ptr, align 8
  store ptr %0, ptr %2, align 8, !tbaa !119
  %3 = load ptr, ptr %2, align 8, !tbaa !119
  %4 = getelementptr inbounds nuw %struct.qctx_st, ptr %3, i32 0, i32 0
  %5 = load ptr, ptr %4, align 8, !tbaa !166
  %6 = call ptr @ossl_quic_obj_get0_mutex(ptr noundef %5)
  call void @ossl_crypto_mutex_unlock(ptr noundef %6)
  ret void
}

; Function Attrs: nounwind uwtable
define internal i32 @quic_validate_for_write(ptr noundef %0, ptr noundef %1) #0 {
  %3 = alloca i32, align 4
  %4 = alloca ptr, align 8
  %5 = alloca ptr, align 8
  %6 = alloca ptr, align 8
  %7 = alloca i32, align 4
  store ptr %0, ptr %4, align 8, !tbaa !156
  store ptr %1, ptr %5, align 8, !tbaa !180
  call void @llvm.lifetime.start.p0(i64 8, ptr %6) #10
  %8 = load ptr, ptr %4, align 8, !tbaa !156
  %9 = icmp eq ptr %8, null
  br i1 %9, label %15, label %10

10:                                               ; preds = %2
  %11 = load ptr, ptr %4, align 8, !tbaa !156
  %12 = getelementptr inbounds nuw %struct.quic_xso_st, ptr %11, i32 0, i32 2
  %13 = load ptr, ptr %12, align 8, !tbaa !142
  %14 = icmp eq ptr %13, null
  br i1 %14, label %15, label %17

15:                                               ; preds = %10, %2
  %16 = load ptr, ptr %5, align 8, !tbaa !180
  store i32 786691, ptr %16, align 4, !tbaa !122
  store i32 0, ptr %3, align 4
  store i32 1, ptr %7, align 4
  br label %60

17:                                               ; preds = %10
  %18 = load ptr, ptr %4, align 8, !tbaa !156
  %19 = getelementptr inbounds nuw %struct.quic_xso_st, ptr %18, i32 0, i32 2
  %20 = load ptr, ptr %19, align 8, !tbaa !142
  %21 = getelementptr inbounds nuw %struct.quic_stream_st, ptr %20, i32 0, i32 15
  %22 = load i64, ptr %21, align 8
  %23 = lshr i64 %22, 8
  %24 = and i64 %23, 255
  %25 = trunc i64 %24 to i32
  switch i32 %25, label %26 [
    i32 0, label %27
    i32 1, label %29
    i32 2, label %45
    i32 3, label %45
    i32 4, label %56
    i32 5, label %58
    i32 6, label %58
  ]

26:                                               ; preds = %17
  br label %27

27:                                               ; preds = %17, %26
  %28 = load ptr, ptr %5, align 8, !tbaa !180
  store i32 366, ptr %28, align 4, !tbaa !122
  store i32 0, ptr %3, align 4
  store i32 1, ptr %7, align 4
  br label %60

29:                                               ; preds = %17
  %30 = load ptr, ptr %4, align 8, !tbaa !156
  %31 = getelementptr inbounds nuw %struct.quic_xso_st, ptr %30, i32 0, i32 1
  %32 = load ptr, ptr %31, align 8, !tbaa !210
  %33 = getelementptr inbounds nuw %struct.quic_conn_st, ptr %32, i32 0, i32 6
  %34 = load ptr, ptr %33, align 8, !tbaa !106
  %35 = call ptr @ossl_quic_channel_get_qsm(ptr noundef %34)
  store ptr %35, ptr %6, align 8, !tbaa !196
  %36 = load ptr, ptr %6, align 8, !tbaa !196
  %37 = load ptr, ptr %4, align 8, !tbaa !156
  %38 = getelementptr inbounds nuw %struct.quic_xso_st, ptr %37, i32 0, i32 2
  %39 = load ptr, ptr %38, align 8, !tbaa !142
  %40 = call i32 @ossl_quic_stream_map_ensure_send_part_id(ptr noundef %36, ptr noundef %39)
  %41 = icmp ne i32 %40, 0
  br i1 %41, label %44, label %42

42:                                               ; preds = %29
  %43 = load ptr, ptr %5, align 8, !tbaa !180
  store i32 786691, ptr %43, align 4, !tbaa !122
  store i32 0, ptr %3, align 4
  store i32 1, ptr %7, align 4
  br label %60

44:                                               ; preds = %29
  br label %45

45:                                               ; preds = %17, %17, %44
  %46 = load ptr, ptr %4, align 8, !tbaa !156
  %47 = getelementptr inbounds nuw %struct.quic_xso_st, ptr %46, i32 0, i32 2
  %48 = load ptr, ptr %47, align 8, !tbaa !142
  %49 = getelementptr inbounds nuw %struct.quic_stream_st, ptr %48, i32 0, i32 11
  %50 = load ptr, ptr %49, align 8, !tbaa !145
  %51 = call i32 @ossl_quic_sstream_get_final_size(ptr noundef %50, ptr noundef null)
  %52 = icmp ne i32 %51, 0
  br i1 %52, label %53, label %55

53:                                               ; preds = %45
  %54 = load ptr, ptr %5, align 8, !tbaa !180
  store i32 365, ptr %54, align 4, !tbaa !122
  store i32 0, ptr %3, align 4
  store i32 1, ptr %7, align 4
  br label %60

55:                                               ; preds = %45
  store i32 1, ptr %3, align 4
  store i32 1, ptr %7, align 4
  br label %60

56:                                               ; preds = %17
  %57 = load ptr, ptr %5, align 8, !tbaa !180
  store i32 365, ptr %57, align 4, !tbaa !122
  store i32 0, ptr %3, align 4
  store i32 1, ptr %7, align 4
  br label %60

58:                                               ; preds = %17, %17
  %59 = load ptr, ptr %5, align 8, !tbaa !180
  store i32 375, ptr %59, align 4, !tbaa !122
  store i32 0, ptr %3, align 4
  store i32 1, ptr %7, align 4
  br label %60

60:                                               ; preds = %58, %56, %55, %53, %42, %27, %15
  call void @llvm.lifetime.end.p0(i64 8, ptr %6) #10
  %61 = load i32, ptr %3, align 4
  ret i32 %61
}

; Function Attrs: nounwind uwtable
define internal i32 @expect_quic_with_stream_lock(ptr noundef %0, i32 noundef %1, i32 noundef %2, ptr noundef %3) #0 {
  %5 = alloca ptr, align 8
  %6 = alloca i32, align 4
  %7 = alloca i32, align 4
  %8 = alloca ptr, align 8
  %9 = alloca i32, align 4
  store ptr %0, ptr %5, align 8, !tbaa !136
  store i32 %1, ptr %6, align 4, !tbaa !122
  store i32 %2, ptr %7, align 4, !tbaa !122
  store ptr %3, ptr %8, align 8, !tbaa !119
  call void @llvm.lifetime.start.p0(i64 4, ptr %9) #10
  store i32 34, ptr %9, align 4, !tbaa !122
  %10 = load i32, ptr %6, align 4, !tbaa !122
  %11 = icmp sge i32 %10, 0
  br i1 %11, label %12, label %15

12:                                               ; preds = %4
  %13 = load i32, ptr %9, align 4, !tbaa !122
  %14 = or i32 %13, 8
  store i32 %14, ptr %9, align 4, !tbaa !122
  br label %15

15:                                               ; preds = %12, %4
  %16 = load i32, ptr %6, align 4, !tbaa !122
  %17 = icmp sgt i32 %16, 0
  br i1 %17, label %18, label %21

18:                                               ; preds = %15
  %19 = load i32, ptr %9, align 4, !tbaa !122
  %20 = or i32 %19, 16
  store i32 %20, ptr %9, align 4, !tbaa !122
  br label %21

21:                                               ; preds = %18, %15
  %22 = load i32, ptr %7, align 4, !tbaa !122
  %23 = icmp ne i32 %22, 0
  br i1 %23, label %24, label %27

24:                                               ; preds = %21
  %25 = load i32, ptr %9, align 4, !tbaa !122
  %26 = or i32 %25, 64
  store i32 %26, ptr %9, align 4, !tbaa !122
  br label %27

27:                                               ; preds = %24, %21
  %28 = load ptr, ptr %5, align 8, !tbaa !136
  %29 = load ptr, ptr %8, align 8, !tbaa !119
  %30 = load i32, ptr %9, align 4, !tbaa !122
  %31 = call i32 @expect_quic_as(ptr noundef %28, ptr noundef %29, i32 noundef %30)
  call void @llvm.lifetime.end.p0(i64 4, ptr %9) #10
  ret i32 %31
}

; Function Attrs: nounwind uwtable
define i32 @ossl_quic_stream_reset(ptr noundef %0, ptr noundef %1, i64 noundef %2) #0 {
  %4 = alloca i32, align 4
  %5 = alloca ptr, align 8
  %6 = alloca ptr, align 8
  %7 = alloca i64, align 8
  %8 = alloca %struct.qctx_st, align 8
  %9 = alloca ptr, align 8
  %10 = alloca ptr, align 8
  %11 = alloca i64, align 8
  %12 = alloca i32, align 4
  %13 = alloca i32, align 4
  %14 = alloca i32, align 4
  store ptr %0, ptr %5, align 8, !tbaa !136
  store ptr %1, ptr %6, align 8, !tbaa !241
  store i64 %2, ptr %7, align 8, !tbaa !169
  call void @llvm.lifetime.start.p0(i64 56, ptr %8) #10
  call void @llvm.lifetime.start.p0(i64 8, ptr %9) #10
  call void @llvm.lifetime.start.p0(i64 8, ptr %10) #10
  call void @llvm.lifetime.start.p0(i64 8, ptr %11) #10
  call void @llvm.lifetime.start.p0(i64 4, ptr %12) #10
  call void @llvm.lifetime.start.p0(i64 4, ptr %13) #10
  %15 = load ptr, ptr %5, align 8, !tbaa !136
  %16 = call i32 @expect_quic_with_stream_lock(ptr noundef %15, i32 noundef 0, i32 noundef 0, ptr noundef %8)
  %17 = icmp ne i32 %16, 0
  br i1 %17, label %19, label %18

18:                                               ; preds = %3
  store i32 0, ptr %4, align 4
  store i32 1, ptr %14, align 4
  br label %62

19:                                               ; preds = %3
  %20 = getelementptr inbounds nuw %struct.qctx_st, ptr %8, i32 0, i32 3
  %21 = load ptr, ptr %20, align 8, !tbaa !123
  %22 = getelementptr inbounds nuw %struct.quic_conn_st, ptr %21, i32 0, i32 6
  %23 = load ptr, ptr %22, align 8, !tbaa !106
  %24 = call ptr @ossl_quic_channel_get_qsm(ptr noundef %23)
  store ptr %24, ptr %9, align 8, !tbaa !196
  %25 = getelementptr inbounds nuw %struct.qctx_st, ptr %8, i32 0, i32 4
  %26 = load ptr, ptr %25, align 8, !tbaa !141
  %27 = getelementptr inbounds nuw %struct.quic_xso_st, ptr %26, i32 0, i32 2
  %28 = load ptr, ptr %27, align 8, !tbaa !142
  store ptr %28, ptr %10, align 8, !tbaa !204
  %29 = load ptr, ptr %6, align 8, !tbaa !241
  %30 = icmp ne ptr %29, null
  br i1 %30, label %31, label %35

31:                                               ; preds = %19
  %32 = load ptr, ptr %6, align 8, !tbaa !241
  %33 = getelementptr inbounds nuw %struct.ssl_stream_reset_args_st, ptr %32, i32 0, i32 0
  %34 = load i64, ptr %33, align 8, !tbaa !243
  br label %36

35:                                               ; preds = %19
  br label %36

36:                                               ; preds = %35, %31
  %37 = phi i64 [ %34, %31 ], [ 0, %35 ]
  store i64 %37, ptr %11, align 8, !tbaa !169
  %38 = getelementptr inbounds nuw %struct.qctx_st, ptr %8, i32 0, i32 4
  %39 = load ptr, ptr %38, align 8, !tbaa !141
  %40 = call i32 @quic_validate_for_write(ptr noundef %39, ptr noundef %13)
  %41 = icmp ne i32 %40, 0
  br i1 %41, label %45, label %42

42:                                               ; preds = %36
  %43 = load i32, ptr %13, align 4, !tbaa !122
  %44 = call i32 (ptr, ptr, i32, ptr, i32, ptr, ...) @quic_raise_non_normal_error(ptr noundef %8, ptr noundef @.str, i32 noundef 3927, ptr noundef @__func__.ossl_quic_stream_reset, i32 noundef %43, ptr noundef null)
  store i32 %44, ptr %12, align 4, !tbaa !122
  br label %60

45:                                               ; preds = %36
  %46 = load ptr, ptr %9, align 8, !tbaa !196
  %47 = load ptr, ptr %10, align 8, !tbaa !204
  %48 = load i64, ptr %11, align 8, !tbaa !169
  %49 = call i32 @ossl_quic_stream_map_reset_stream_send_part(ptr noundef %46, ptr noundef %47, i64 noundef %48)
  store i32 %49, ptr %12, align 4, !tbaa !122
  %50 = load i32, ptr %12, align 4, !tbaa !122
  %51 = icmp ne i32 %50, 0
  br i1 %51, label %52, label %59

52:                                               ; preds = %45
  %53 = getelementptr inbounds nuw %struct.qctx_st, ptr %8, i32 0, i32 4
  %54 = load ptr, ptr %53, align 8, !tbaa !141
  %55 = getelementptr inbounds nuw %struct.quic_xso_st, ptr %54, i32 0, i32 3
  %56 = load i8, ptr %55, align 8
  %57 = and i8 %56, -3
  %58 = or i8 %57, 2
  store i8 %58, ptr %55, align 8
  br label %59

59:                                               ; preds = %52, %45
  br label %60

60:                                               ; preds = %59, %42
  call void @qctx_unlock(ptr noundef %8)
  %61 = load i32, ptr %12, align 4, !tbaa !122
  store i32 %61, ptr %4, align 4
  store i32 1, ptr %14, align 4
  br label %62

62:                                               ; preds = %60, %18
  call void @llvm.lifetime.end.p0(i64 4, ptr %13) #10
  call void @llvm.lifetime.end.p0(i64 4, ptr %12) #10
  call void @llvm.lifetime.end.p0(i64 8, ptr %11) #10
  call void @llvm.lifetime.end.p0(i64 8, ptr %10) #10
  call void @llvm.lifetime.end.p0(i64 8, ptr %9) #10
  call void @llvm.lifetime.end.p0(i64 56, ptr %8) #10
  %63 = load i32, ptr %4, align 4
  ret i32 %63
}