; Function Attrs: nounwind uwtable
define i32 @ossl_quic_stream_reset(ptr noundef %0, ptr noundef readonly captures(address_is_null) %1, i64 noundef %2) local_unnamed_addr #0 {
  %4 = alloca %struct.qctx_st, align 8
  call void @llvm.lifetime.start.p0(i64 56, ptr nonnull %4) #12
  %5 = call fastcc range(i32 0, 2) i32 @expect_quic_as(ptr noundef %0, ptr noundef nonnull %4, i32 noundef 42)
  %.not = icmp eq i32 %5, 0
  br i1 %.not, label %49, label %6

6:                                                ; preds = %3
  %7 = getelementptr inbounds nuw i8, ptr %4, i64 24
  %8 = load ptr, ptr %7, align 8, !tbaa !134
  %9 = getelementptr inbounds nuw i8, ptr %8, i64 160
  %10 = load ptr, ptr %9, align 8, !tbaa !113
  %11 = call ptr @ossl_quic_channel_get_qsm(ptr noundef %10) #12
  %12 = getelementptr inbounds nuw i8, ptr %4, i64 32
  %13 = load ptr, ptr %12, align 8, !tbaa !130
  %14 = getelementptr inbounds nuw i8, ptr %13, i64 128
  %15 = load ptr, ptr %14, align 8, !tbaa !145
  %.not11 = icmp eq ptr %1, null
  br i1 %.not11, label %18, label %16

16:                                               ; preds = %6
  %17 = load i64, ptr %1, align 8, !tbaa !207
  br label %18

18:                                               ; preds = %16, %6
  %19 = phi i64 [ %17, %16 ], [ 0, %6 ]
  %20 = icmp eq ptr %15, null
  br i1 %20, label %.sink.split.i, label %21

21:                                               ; preds = %18
  %22 = getelementptr inbounds nuw i8, ptr %15, i64 256
  %23 = load i64, ptr %22, align 8
  %24 = lshr i64 %23, 8
  %trunc.i = trunc i64 %24 to i8
  switch i8 %trunc.i, label %.sink.split.i [
    i8 6, label %39
    i8 1, label %25
    i8 2, label %33
    i8 3, label %33
    i8 4, label %38
    i8 5, label %39
  ]

25:                                               ; preds = %21
  %26 = getelementptr inbounds nuw i8, ptr %13, i64 120
  %27 = load ptr, ptr %26, align 8, !tbaa !136
  %28 = getelementptr inbounds nuw i8, ptr %27, i64 160
  %29 = load ptr, ptr %28, align 8, !tbaa !113
  %30 = call ptr @ossl_quic_channel_get_qsm(ptr noundef %29) #12
  %31 = load ptr, ptr %14, align 8, !tbaa !145
  %32 = call i32 @ossl_quic_stream_map_ensure_send_part_id(ptr noundef %30, ptr noundef %31) #12
  %.not.i = icmp eq i32 %32, 0
  br i1 %.not.i, label %.sink.split.i, label %._crit_edge.i

._crit_edge.i:                                    ; preds = %25
  %.pre.i = load ptr, ptr %14, align 8, !tbaa !145
  br label %33

33:                                               ; preds = %._crit_edge.i, %21, %21
  %34 = phi ptr [ %.pre.i, %._crit_edge.i ], [ %15, %21 ], [ %15, %21 ]
  %35 = getelementptr inbounds nuw i8, ptr %34, i64 112
  %36 = load ptr, ptr %35, align 8, !tbaa !146
  %37 = call i32 @ossl_quic_sstream_get_final_size(ptr noundef %36, ptr noundef null) #12
  %.not15.i = icmp eq i32 %37, 0
  br i1 %.not15.i, label %quic_validate_for_write.exit, label %.sink.split.i

38:                                               ; preds = %21
  br label %.sink.split.i

39:                                               ; preds = %21, %21
  br label %.sink.split.i

.sink.split.i:                                    ; preds = %33, %39, %38, %25, %21, %18
  %.014.ph = phi i32 [ 786691, %25 ], [ 366, %21 ], [ 786691, %18 ], [ 365, %38 ], [ 375, %39 ], [ 365, %33 ]
  call void (ptr, ptr, i32, ptr, i32, ptr, ...) @quic_raise_non_normal_error(ptr noundef nonnull %4, ptr nonnull poison, i32 noundef 3927, ptr noundef nonnull @__func__.ossl_quic_stream_reset, i32 noundef %.014.ph, ptr noundef null)
  br label %46

quic_validate_for_write.exit:                     ; preds = %33
  %40 = call i32 @ossl_quic_stream_map_reset_stream_send_part(ptr noundef %11, ptr noundef nonnull %15, i64 noundef %19) #12
  %.not13 = icmp eq i32 %40, 0
  br i1 %.not13, label %46, label %41

41:                                               ; preds = %quic_validate_for_write.exit
  %42 = load ptr, ptr %12, align 8, !tbaa !130
  %43 = getelementptr inbounds nuw i8, ptr %42, i64 136
  %44 = load i8, ptr %43, align 8
  %45 = or i8 %44, 2
  store i8 %45, ptr %43, align 8
  br label %46

46:                                               ; preds = %quic_validate_for_write.exit, %41, %.sink.split.i
  %.0 = phi i32 [ %40, %41 ], [ 0, %quic_validate_for_write.exit ], [ 0, %.sink.split.i ]
  %.val = load ptr, ptr %4, align 8, !tbaa !157
  %47 = getelementptr i8, ptr %.val, i64 88
  %.val.val = load ptr, ptr %47, align 8, !tbaa !143
  %48 = call ptr @ossl_quic_engine_get0_mutex(ptr noundef %.val.val) #12
  call void @ossl_crypto_mutex_unlock(ptr noundef %48) #12
  br label %49

49:                                               ; preds = %3, %46
  %.08 = phi i32 [ %.0, %46 ], [ 0, %3 ]
  call void @llvm.lifetime.end.p0(i64 56, ptr nonnull %4) #12
  ret i32 %.08
}